; Function Attrs: mustprogress null_pointer_is_valid sspstrong uwtable
define void @_ZN15RtpPlayerDialog11itemEnteredEP15QTreeWidgetItemi(ptr noundef align 8 captures(none) dereferenceable_or_null(472) %0, ptr noundef %1, i32 %2) #0 align 2 {
  %.not.i = icmp eq ptr %1, null
  %4 = getelementptr inbounds nuw i8, ptr %0, i64 360
  %5 = load ptr, ptr %4, align 8
  br i1 %.not.i, label %10, label %6

6:                                                ; preds = %3
  %.not9.i = icmp eq ptr %1, %5
  br i1 %.not9.i, label %_ZN15RtpPlayerDialog19handleItemHighlightEP15QTreeWidgetItemb.exit, label %7

7:                                                ; preds = %6
  %.not10.i = icmp eq ptr %5, null
  br i1 %.not10.i, label %9, label %8

8:                                                ; preds = %7
  tail call void @_ZN15RtpPlayerDialog13highlightItemEP15QTreeWidgetItemb(ptr noundef align 8 dereferenceable_or_null(472) %0, ptr noundef nonnull %5, i1 noundef zeroext false)
  br label %9

9:                                                ; preds = %8, %7
  tail call void @_ZN15RtpPlayerDialog13highlightItemEP15QTreeWidgetItemb(ptr noundef align 8 dereferenceable_or_null(472) %0, ptr noundef nonnull %1, i1 noundef zeroext true)
  br label %.sink.split.i

10:                                               ; preds = %3
  %.not8.i = icmp eq ptr %5, null
  br i1 %.not8.i, label %_ZN15RtpPlayerDialog19handleItemHighlightEP15QTreeWidgetItemb.exit, label %11

11:                                               ; preds = %10
  tail call void @_ZN15RtpPlayerDialog13highlightItemEP15QTreeWidgetItemb(ptr noundef align 8 dereferenceable_or_null(472) %0, ptr noundef nonnull %5, i1 noundef zeroext false)
  br label %.sink.split.i

.sink.split.i:                                    ; preds = %11, %9
  %12 = getelementptr inbounds nuw i8, ptr %0, i64 144
  %13 = load ptr, ptr %12, align 8
  %14 = getelementptr inbounds nuw i8, ptr %13, i64 312
  %15 = load ptr, ptr %14, align 8
  tail call void @_ZN11QCustomPlot6replotENS_15RefreshPriorityE(ptr noundef align 8 dereferenceable_or_null(513) %15, i32 noundef 2)
  store ptr %1, ptr %4, align 8
  br label %_ZN15RtpPlayerDialog19handleItemHighlightEP15QTreeWidgetItemb.exit

_ZN15RtpPlayerDialog19handleItemHighlightEP15QTreeWidgetItemb.exit: ; preds = %6, %10, %.sink.split.i
  ret void
}